#include <math.h>
#include <stdio.h>
#include <stdlib.h>
#include <string.h>

int main()
{
    struct patients
    {
       char id[10];
       int age;
       }temp;
    struct patients patient[100];
    struct patients old[100];
    int i,j,n,first;
    scanf("%d",&n);
    first=0;
    for (i=0;i<n;i++){
        scanf("%s",patient[i].id);
        scanf ("%d",&patient[i].age);
        if (patient[i].age>=60){
            old[first]=patient[i];
            first=first+1;
            }
        }
    for (i=0;i<first;i++){
        for (j=0;j<first-i-1;j++){
            if (old[j].age<old[j+1].age){
                temp=old[j];
                old[j]=old[j+1];
                old[j+1]=temp;
                }
            }
        }
    for (i=0;i<first;i++){
        printf("%s\n",old[i].id);
        }
    for (i=0;i<n;i++){
        if (patient[i].age<60){
            printf("%s\n",patient[i].id);
            }
        }
    return 0;
    }
